; ModuleID = '6/3198.c'
source_filename = "6/3198.c"
target datalayout = "e-m:e-p270:32:32-p271:32:32-p272:64:64-i64:64-f80:128-n8:16:32:64-S128"
target triple = "x86_64-pc-linux-gnu"

@.str = private unnamed_addr constant [3 x i8] c"%d\00", align 1
@.str.1 = private unnamed_addr constant [5 x i8] c"%d%d\00", align 1
@.str.2 = private unnamed_addr constant [4 x i8] c"%d\0A\00", align 1

; Function Attrs: noinline nounwind uwtable
define dso_local void @main() #0 {
  %1 = alloca i32, align 4
  %2 = alloca i32, align 4
  %3 = alloca i32, align 4
  %4 = alloca i32, align 4
  %5 = alloca [100 x i32], align 16
  %6 = alloca i32*, align 8
  %7 = alloca i32, align 4
  %8 = alloca i32, align 4
  store i32 0, i32* %4, align 4
  %9 = bitcast [100 x i32]* %5 to i8*
  call void @llvm.memset.p0i8.i64(i8* align 16 %9, i8 0, i64 400, i1 false)
  %10 = call i32 (i8*, ...) @__isoc99_scanf(i8* getelementptr inbounds ([3 x i8], [3 x i8]* @.str, i64 0, i64 0), i32* %1)
  store i32 0, i32* %4, align 4
  br label %11

11:                                               ; preds = %85, %0
  %12 = load i32, i32* %4, align 4
  %13 = load i32, i32* %1, align 4
  %14 = icmp slt i32 %12, %13
  br i1 %14, label %15, label %88

15:                                               ; preds = %11
  %16 = call i32 (i8*, ...) @__isoc99_scanf(i8* getelementptr inbounds ([5 x i8], [5 x i8]* @.str.1, i64 0, i64 0), i32* %7, i32* %8)
  %17 = load i32, i32* %7, align 4
  %18 = sext i32 %17 to i64
  %19 = mul i64 4, %18
  %20 = load i32, i32* %8, align 4
  %21 = sext i32 %20 to i64
  %22 = mul i64 %19, %21
  %23 = call noalias i8* @malloc(i64 %22) #4
  %24 = bitcast i8* %23 to i32*
  store i32* %24, i32** %6, align 8
  store i32 0, i32* %2, align 4
  br label %25

25:                                               ; preds = %81, %15
  %26 = load i32, i32* %2, align 4
  %27 = load i32, i32* %7, align 4
  %28 = icmp slt i32 %26, %27
  br i1 %28, label %29, label %84

29:                                               ; preds = %25
  store i32 0, i32* %3, align 4
  br label %30

30:                                               ; preds = %77, %29
  %31 = load i32, i32* %3, align 4
  %32 = load i32, i32* %8, align 4
  %33 = icmp slt i32 %31, %32
  br i1 %33, label %34, label %80

34:                                               ; preds = %30
  %35 = load i32*, i32** %6, align 8
  %36 = load i32, i32* %2, align 4
  %37 = load i32, i32* %8, align 4
  %38 = mul nsw i32 %36, %37
  %39 = sext i32 %38 to i64
  %40 = getelementptr inbounds i32, i32* %35, i64 %39
  %41 = load i32, i32* %3, align 4
  %42 = sext i32 %41 to i64
  %43 = getelementptr inbounds i32, i32* %40, i64 %42
  %44 = call i32 (i8*, ...) @__isoc99_scanf(i8* getelementptr inbounds ([3 x i8], [3 x i8]* @.str, i64 0, i64 0), i32* %43)
  %45 = load i32, i32* %2, align 4
  %46 = icmp eq i32 %45, 0
  br i1 %46, label %60, label %47

47:                                               ; preds = %34
  %48 = load i32, i32* %2, align 4
  %49 = load i32, i32* %7, align 4
  %50 = sub nsw i32 %49, 1
  %51 = icmp eq i32 %48, %50
  br i1 %51, label %60, label %52

52:                                               ; preds = %47
  %53 = load i32, i32* %3, align 4
  %54 = icmp eq i32 %53, 0
  br i1 %54, label %60, label %55

55:                                               ; preds = %52
  %56 = load i32, i32* %3, align 4
  %57 = load i32, i32* %8, align 4
  %58 = sub nsw i32 %57, 1
  %59 = icmp eq i32 %56, %58
  br i1 %59, label %60, label %76

60:                                               ; preds = %55, %52, %47, %34
  %61 = load i32*, i32** %6, align 8
  %62 = load i32, i32* %2, align 4
  %63 = load i32, i32* %8, align 4
  %64 = mul nsw i32 %62, %63
  %65 = sext i32 %64 to i64
  %66 = getelementptr inbounds i32, i32* %61, i64 %65
  %67 = load i32, i32* %3, align 4
  %68 = sext i32 %67 to i64
  %69 = getelementptr inbounds i32, i32* %66, i64 %68
  %70 = load i32, i32* %69, align 4
  %71 = load i32, i32* %4, align 4
  %72 = sext i32 %71 to i64
  %73 = getelementptr inbounds [100 x i32], [100 x i32]* %5, i64 0, i64 %72
  %74 = load i32, i32* %73, align 4
  %75 = add nsw i32 %74, %70
  store i32 %75, i32* %73, align 4
  br label %76

76:                                               ; preds = %60, %55
  br label %77

77:                                               ; preds = %76
  %78 = load i32, i32* %3, align 4
  %79 = add nsw i32 %78, 1
  store i32 %79, i32* %3, align 4
  br label %30

80:                                               ; preds = %30
  br label %81

81:                                               ; preds = %80
  %82 = load i32, i32* %2, align 4
  %83 = add nsw i32 %82, 1
  store i32 %83, i32* %2, align 4
  br label %25

84:                                               ; preds = %25
  br label %85

85:                                               ; preds = %84
  %86 = load i32, i32* %4, align 4
  %87 = add nsw i32 %86, 1
  store i32 %87, i32* %4, align 4
  br label %11

88:                                               ; preds = %11
  store i32 0, i32* %4, align 4
  br label %89

89:                                               ; preds = %99, %88
  %90 = load i32, i32* %4, align 4
  %91 = load i32, i32* %1, align 4
  %92 = icmp slt i32 %90, %91
  br i1 %92, label %93, label %102

93:                                               ; preds = %89
  %94 = load i32, i32* %4, align 4
  %95 = sext i32 %94 to i64
  %96 = getelementptr inbounds [100 x i32], [100 x i32]* %5, i64 0, i64 %95
  %97 = load i32, i32* %96, align 4
  %98 = call i32 (i8*, ...) @printf(i8* getelementptr inbounds ([4 x i8], [4 x i8]* @.str.2, i64 0, i64 0), i32 %97)
  br label %99

99:                                               ; preds = %93
  %100 = load i32, i32* %4, align 4
  %101 = add nsw i32 %100, 1
  store i32 %101, i32* %4, align 4
  br label %89

102:                                              ; preds = %89
  ret void
}

; Function Attrs: argmemonly nounwind willreturn
declare void @llvm.memset.p0i8.i64(i8* nocapture writeonly, i8, i64, i1 immarg) #1

declare dso_local i32 @__isoc99_scanf(i8*, ...) #2

; Function Attrs: nounwind
declare dso_local noalias i8* @malloc(i64) #3

declare dso_local i32 @printf(i8*, ...) #2


!llvm.module.flags = !{!0}
!llvm.ident = !{!1}

!0 = !{i32 1, !"wchar_size", i32 4}
!1 = !{!"clang version 10.0.0-4ubuntu1 "}
